target datalayout = "e-m:e-p270:32:32-p271:32:32-p272:64:64-i64:64-i128:128-f80:128-n8:16:32:64-S128"
target triple = "x86_64-pc-linux-gnu"

%struct.anon.0 = type { i8, i8 }
%struct.rb_random_mt_t = type { %struct.rb_random_struct, %struct.MT }
%struct.rb_random_struct = type { i64 }
%struct.MT = type { [624 x i32], ptr, i32 }

@default_rand_key = internal global ptr null, align 8
@random_mt_if = internal constant { i64, %struct.anon.0, i16, [4 x i8], ptr, ptr, ptr, ptr, ptr } { i64 128, %struct.anon.0 { i8 1, i8 0 }, i16 0, [4 x i8] zeroinitializer, ptr @rand_mt_init, ptr @rand_mt_init_int32, ptr @rand_mt_get_int32, ptr @rand_mt_get_bytes, ptr null }, align 8

; Function Attrs: inlinehint nounwind sspstrong uwtable
define internal i32 @rb_check_arity(i32 noundef %0, i32 noundef %1, i32 noundef %2) #4 {
  %4 = alloca i32, align 4
  %5 = alloca i32, align 4
  %6 = alloca i32, align 4
  store i32 %0, ptr %4, align 4, !tbaa !19
  store i32 %1, ptr %5, align 4, !tbaa !19
  store i32 %2, ptr %6, align 4, !tbaa !19
  %7 = load i32, ptr %4, align 4, !tbaa !19
  %8 = load i32, ptr %5, align 4, !tbaa !19
  %9 = icmp slt i32 %7, %8
  br i1 %9, label %17, label %10

10:                                               ; preds = %3
  %11 = load i32, ptr %6, align 4, !tbaa !19
  %12 = icmp ne i32 %11, -1
  br i1 %12, label %13, label %21

13:                                               ; preds = %10
  %14 = load i32, ptr %4, align 4, !tbaa !19
  %15 = load i32, ptr %6, align 4, !tbaa !19
  %16 = icmp sgt i32 %14, %15
  br i1 %16, label %17, label %21

17:                                               ; preds = %13, %3
  %18 = load i32, ptr %4, align 4, !tbaa !19
  %19 = load i32, ptr %5, align 4, !tbaa !19
  %20 = load i32, ptr %6, align 4, !tbaa !19
  call void @rb_error_arity(i32 noundef %18, i32 noundef %19, i32 noundef %20) #27
  unreachable

21:                                               ; preds = %13, %10
  %22 = load i32, ptr %4, align 4, !tbaa !19
  ret i32 %22
}

; Function Attrs: nounwind sspstrong uwtable
define internal ptr @rand_mt_start(ptr noundef %0) #0 {
  %2 = alloca ptr, align 8
  store ptr %0, ptr %2, align 8, !tbaa !20
  %3 = load ptr, ptr %2, align 8, !tbaa !20
  %4 = getelementptr inbounds nuw %struct.rb_random_mt_t, ptr %3, i32 0, i32 1
  %5 = getelementptr inbounds nuw %struct.MT, ptr %4, i32 0, i32 1
  %6 = load ptr, ptr %5, align 8, !tbaa !70
  %7 = icmp ne ptr %6, null
  br i1 %7, label %16, label %8

8:                                                ; preds = %1
  %9 = load ptr, ptr %2, align 8, !tbaa !20
  %10 = getelementptr inbounds nuw %struct.rb_random_mt_t, ptr %9, i32 0, i32 0
  %11 = call i64 @random_seed(i64 noundef 36)
  %12 = call i64 @rand_init(ptr noundef @random_mt_if, ptr noundef %10, i64 noundef %11)
  %13 = load ptr, ptr %2, align 8, !tbaa !20
  %14 = getelementptr inbounds nuw %struct.rb_random_mt_t, ptr %13, i32 0, i32 0
  %15 = getelementptr inbounds nuw %struct.rb_random_struct, ptr %14, i32 0, i32 0
  store i64 %12, ptr %15, align 8, !tbaa !72
  br label %16

16:                                               ; preds = %8, %1
  %17 = load ptr, ptr %2, align 8, !tbaa !20
  ret ptr %17
}

; Function Attrs: nounwind sspstrong uwtable
define internal ptr @default_rand() #0 {
  %1 = alloca ptr, align 8
  call void @llvm.lifetime.start.p0(i64 8, ptr %1) #24
  %2 = load ptr, ptr @default_rand_key, align 8, !tbaa !7
  %3 = call ptr @rb_ractor_local_storage_ptr(ptr noundef %2)
  store ptr %3, ptr %1, align 8, !tbaa !20
  %4 = icmp eq ptr %3, null
  br i1 %4, label %5, label %9

5:                                                ; preds = %0
  %6 = call noalias nonnull ptr @ruby_xcalloc(i64 noundef 1, i64 noundef 2520) #29
  store ptr %6, ptr %1, align 8, !tbaa !20
  %7 = load ptr, ptr @default_rand_key, align 8, !tbaa !7
  %8 = load ptr, ptr %1, align 8, !tbaa !20
  call void @rb_ractor_local_storage_ptr_set(ptr noundef %7, ptr noundef %8)
  br label %9

9:                                                ; preds = %5, %0
  %10 = load ptr, ptr %1, align 8, !tbaa !20
  call void @llvm.lifetime.end.p0(i64 8, ptr %1) #24
  ret ptr %10
}

; Function Attrs: nounwind sspstrong uwtable
define internal i64 @rb_f_srand(i32 noundef %0, ptr noundef %1, i64 noundef %2) #0 {
  %4 = alloca i32, align 4
  %5 = alloca ptr, align 8
  %6 = alloca i64, align 8
  %7 = alloca i64, align 8
  %8 = alloca i64, align 8
  %9 = alloca ptr, align 8
  store i32 %0, ptr %4, align 4, !tbaa !19
  store ptr %1, ptr %5, align 8, !tbaa !55
  store i64 %2, ptr %6, align 8, !tbaa !26
  call void @llvm.lifetime.start.p0(i64 8, ptr %7) #24
  call void @llvm.lifetime.start.p0(i64 8, ptr %8) #24
  call void @llvm.lifetime.start.p0(i64 8, ptr %9) #24
  %10 = call ptr @default_rand()
  %11 = call ptr @rand_mt_start(ptr noundef %10)
  store ptr %11, ptr %9, align 8, !tbaa !20
  %12 = load i32, ptr %4, align 4, !tbaa !19
  %13 = call i32 @rb_check_arity(i32 noundef %12, i32 noundef 0, i32 noundef 1)
  %14 = icmp eq i32 %13, 0
  br i1 %14, label %15, label %18

15:                                               ; preds = %3
  %16 = load i64, ptr %6, align 8, !tbaa !26
  %17 = call i64 @random_seed(i64 noundef %16)
  store i64 %17, ptr %7, align 8, !tbaa !26
  br label %23

18:                                               ; preds = %3
  %19 = load ptr, ptr %5, align 8, !tbaa !55
  %20 = getelementptr i64, ptr %19, i64 0
  %21 = load i64, ptr %20, align 8, !tbaa !26
  %22 = call i64 @rb_to_int(i64 noundef %21)
  store i64 %22, ptr %7, align 8, !tbaa !26
  br label %23

23:                                               ; preds = %18, %15
  %24 = load ptr, ptr %9, align 8, !tbaa !20
  %25 = getelementptr inbounds nuw %struct.rb_random_mt_t, ptr %24, i32 0, i32 0
  %26 = getelementptr inbounds nuw %struct.rb_random_struct, ptr %25, i32 0, i32 0
  %27 = load i64, ptr %26, align 8, !tbaa !72
  store i64 %27, ptr %8, align 8, !tbaa !26
  %28 = load ptr, ptr %9, align 8, !tbaa !20
  %29 = getelementptr inbounds nuw %struct.rb_random_mt_t, ptr %28, i32 0, i32 0
  %30 = load i64, ptr %7, align 8, !tbaa !26
  %31 = call i64 @rand_init(ptr noundef @random_mt_if, ptr noundef %29, i64 noundef %30)
  %32 = load i64, ptr %7, align 8, !tbaa !26
  %33 = load ptr, ptr %9, align 8, !tbaa !20
  %34 = getelementptr inbounds nuw %struct.rb_random_mt_t, ptr %33, i32 0, i32 0
  %35 = getelementptr inbounds nuw %struct.rb_random_struct, ptr %34, i32 0, i32 0
  store i64 %32, ptr %35, align 8, !tbaa !72
  %36 = load i64, ptr %8, align 8, !tbaa !26
  call void @llvm.lifetime.end.p0(i64 8, ptr %9) #24
  call void @llvm.lifetime.end.p0(i64 8, ptr %8) #24
  call void @llvm.lifetime.end.p0(i64 8, ptr %7) #24
  ret i64 %36
}