; Function Attrs: nounwind sspstrong uwtable
define internal i64 @rb_f_srand(i32 noundef %0, ptr noundef readonly captures(none) %1, i64 noundef %2) #0 {
  %4 = load ptr, ptr @default_rand_key, align 8, !tbaa !7
  %5 = tail call ptr @rb_ractor_local_storage_ptr(ptr noundef %4) #23
  %6 = icmp eq ptr %5, null
  br i1 %6, label %7, label %default_rand.exit

7:                                                ; preds = %3
  %8 = tail call noalias nonnull dereferenceable(2520) ptr @ruby_xcalloc(i64 noundef 1, i64 noundef 2520) #24
  %9 = load ptr, ptr @default_rand_key, align 8, !tbaa !7
  tail call void @rb_ractor_local_storage_ptr_set(ptr noundef %9, ptr noundef nonnull %8) #23
  br label %default_rand.exit

default_rand.exit:                                ; preds = %3, %7
  %.0.i = phi ptr [ %8, %7 ], [ %5, %3 ]
  %10 = getelementptr inbounds nuw i8, ptr %.0.i, i64 2504
  %11 = load ptr, ptr %10, align 8, !tbaa !12
  %.not.i = icmp eq ptr %11, null
  br i1 %.not.i, label %12, label %rand_mt_start.exit

12:                                               ; preds = %default_rand.exit
  %13 = tail call i64 @random_seed(i64 poison)
  %14 = tail call fastcc i64 @rand_init(ptr noundef nonnull @random_mt_if, ptr noundef nonnull %.0.i, i64 noundef %13)
  store i64 %13, ptr %.0.i, align 8, !tbaa !19
  br label %rand_mt_start.exit

rand_mt_start.exit:                               ; preds = %default_rand.exit, %12
  %or.cond.i = icmp ugt i32 %0, 1
  br i1 %or.cond.i, label %15, label %rb_check_arity.exit

15:                                               ; preds = %rand_mt_start.exit
  tail call void @rb_error_arity(i32 noundef %0, i32 noundef 0, i32 noundef 1) #25
  unreachable

rb_check_arity.exit:                              ; preds = %rand_mt_start.exit
  %16 = icmp eq i32 %0, 0
  br i1 %16, label %17, label %19

17:                                               ; preds = %rb_check_arity.exit
  %18 = tail call i64 @random_seed(i64 poison)
  br label %22

19:                                               ; preds = %rb_check_arity.exit
  %20 = load i64, ptr %1, align 8, !tbaa !43
  %21 = tail call i64 @rb_to_int(i64 noundef %20) #23
  br label %22

22:                                               ; preds = %19, %17
  %.0 = phi i64 [ %18, %17 ], [ %21, %19 ]
  %23 = load i64, ptr %.0.i, align 8, !tbaa !19
  %24 = tail call fastcc i64 @rand_init(ptr noundef nonnull @random_mt_if, ptr noundef nonnull %.0.i, i64 noundef %.0)
  store i64 %.0, ptr %.0.i, align 8, !tbaa !19
  ret i64 %23
}